; Function Attrs: nounwind uwtable
define internal range(i32 -29, 1) i32 @pmix_mca_base_var_enum_verbose_dump(ptr noundef readonly captures(address_is_null) %0, ptr noundef initializes((0, 8)) %1) #1 {
  %3 = alloca ptr, align 8
  call void @llvm.lifetime.start.p0(i64 8, ptr nonnull %3) #21
  store ptr null, ptr %1, align 8, !tbaa !41
  %4 = icmp eq ptr %0, null
  br i1 %4, label %enum_dump.exit, label %.preheader.i

.preheader.i:                                     ; preds = %2
  %5 = getelementptr inbounds nuw i8, ptr %0, i64 184
  %6 = getelementptr inbounds nuw i8, ptr %0, i64 176
  %7 = load i32, ptr %6, align 8, !tbaa !22
  %8 = icmp sgt i32 %7, 0
  br i1 %8, label %.lr.ph.i, label %.loopexit

.lr.ph.i:                                         ; preds = %.preheader.i, %21
  %indvars.iv.i = phi i64 [ %indvars.iv.next.i, %21 ], [ 0, %.preheader.i ]
  %.01925.i = phi ptr [ %22, %21 ], [ null, %.preheader.i ]
  %9 = load ptr, ptr %5, align 8, !tbaa !21
  %10 = getelementptr inbounds nuw %struct.pmix_mca_base_var_enum_value_t, ptr %9, i64 %indvars.iv.i
  %11 = getelementptr inbounds nuw i8, ptr %10, i64 8
  %12 = load ptr, ptr %11, align 8, !tbaa !23
  %.not.i = icmp eq ptr %12, null
  br i1 %.not.i, label %.loopexit, label %13

13:                                               ; preds = %.lr.ph.i
  %.not23.i = icmp eq ptr %.01925.i, null
  %14 = select i1 %.not23.i, ptr @.str.17, ptr %.01925.i
  %15 = select i1 %.not23.i, ptr @.str.17, ptr @.str.18
  %16 = load i32, ptr %10, align 8, !tbaa !43
  %17 = tail call i32 (ptr, ptr, ...) @asprintf(ptr noundef nonnull %1, ptr noundef nonnull @.str.16, ptr noundef nonnull %14, ptr noundef nonnull %15, i32 noundef %16, ptr noundef nonnull %12) #21
  br i1 %.not23.i, label %19, label %18

18:                                               ; preds = %13
  tail call void @free(ptr noundef nonnull %.01925.i) #21
  br label %19

19:                                               ; preds = %18, %13
  %20 = icmp slt i32 %17, 0
  br i1 %20, label %enum_dump.exit, label %21

21:                                               ; preds = %19
  %22 = load ptr, ptr %1, align 8, !tbaa !41
  %indvars.iv.next.i = add nuw nsw i64 %indvars.iv.i, 1
  %23 = load i32, ptr %6, align 8, !tbaa !22
  %24 = sext i32 %23 to i64
  %25 = icmp slt i64 %indvars.iv.next.i, %24
  br i1 %25, label %.lr.ph.i, label %.loopexit, !llvm.loop !46

.loopexit:                                        ; preds = %21, %.lr.ph.i, %.preheader.i
  %26 = phi ptr [ null, %.preheader.i ], [ %22, %21 ], [ %.01925.i, %.lr.ph.i ]
  %27 = call i32 (ptr, ptr, ...) @asprintf(ptr noundef nonnull %3, ptr noundef nonnull @.str.15, ptr noundef %26) #21
  %28 = load ptr, ptr %1, align 8, !tbaa !41
  call void @free(ptr noundef %28) #21
  %29 = icmp slt i32 %27, 0
  %30 = load ptr, ptr %3, align 8
  %.sink = select i1 %29, ptr null, ptr %30
  %.0.ph = select i1 %29, i32 -29, i32 0
  store ptr %.sink, ptr %1, align 8, !tbaa !41
  br label %enum_dump.exit

enum_dump.exit:                                   ; preds = %19, %.loopexit, %2
  %.0 = phi i32 [ -1, %2 ], [ %.0.ph, %.loopexit ], [ -29, %19 ]
  call void @llvm.lifetime.end.p0(i64 8, ptr nonnull %3) #21
  ret i32 %.0
}